; Function Attrs: mustprogress uwtable
define void @_ZN4pkpy4Dict3setEPNS_8PyObjectES2_(ptr noundef nonnull align 8 dereferenceable(48) %0, ptr noundef %1, ptr noundef %2) local_unnamed_addr #7 align 2 {
  %4 = alloca i8, align 1
  %5 = alloca i32, align 4
  %6 = getelementptr inbounds i8, ptr %0, i64 16
  %7 = load i32, ptr %6, align 8
  %8 = getelementptr inbounds i8, ptr %0, i64 20
  %9 = load i32, ptr %8, align 4
  %.not = icmp slt i32 %7, %9
  br i1 %.not, label %11, label %10

10:                                               ; preds = %3
  tail call void @_ZN4pkpy4Dict7_rehashEv(ptr noundef nonnull align 8 dereferenceable(48) %0)
  br label %11

11:                                               ; preds = %10, %3
  call void @_ZNK4pkpy4Dict8_probe_1EPNS_8PyObjectERbRi(ptr noundef nonnull align 8 dereferenceable(48) %0, ptr noundef %1, ptr noundef nonnull align 1 dereferenceable(1) %4, ptr noundef nonnull align 4 dereferenceable(4) %5)
  %12 = load i8, ptr %4, align 1
  %13 = trunc i8 %12 to i1
  %.pre = load i32, ptr %5, align 4
  br i1 %13, label %36, label %14

14:                                               ; preds = %11
  %15 = load i32, ptr %6, align 8
  %16 = add nsw i32 %15, 1
  store i32 %16, ptr %6, align 8
  %17 = getelementptr inbounds i8, ptr %0, i64 32
  %18 = load ptr, ptr %17, align 8
  %19 = sext i32 %.pre to i64
  %20 = getelementptr inbounds %"struct.pkpy::Dict::Item", ptr %18, i64 %19
  store ptr %1, ptr %20, align 8
  %21 = load i32, ptr %6, align 8
  %22 = icmp eq i32 %21, 1
  br i1 %22, label %23, label %26

23:                                               ; preds = %14
  %24 = getelementptr inbounds i8, ptr %0, i64 24
  store i32 %.pre, ptr %24, align 8
  %25 = getelementptr inbounds i8, ptr %0, i64 28
  store i32 %.pre, ptr %25, align 4
  br label %36

26:                                               ; preds = %14
  %27 = getelementptr inbounds i8, ptr %0, i64 28
  %28 = load i32, ptr %27, align 4
  %29 = getelementptr inbounds i8, ptr %0, i64 40
  %30 = load ptr, ptr %29, align 8
  %31 = getelementptr inbounds %"struct.pkpy::Dict::ItemNode", ptr %30, i64 %19
  store i32 %28, ptr %31, align 4
  %32 = load i32, ptr %5, align 4
  %33 = load ptr, ptr %29, align 8
  %34 = sext i32 %28 to i64
  %35 = getelementptr inbounds %"struct.pkpy::Dict::ItemNode", ptr %33, i64 %34, i32 1
  store i32 %32, ptr %35, align 4
  store i32 %32, ptr %27, align 4
  br label %36

36:                                               ; preds = %23, %26, %11
  %37 = phi i32 [ %.pre, %23 ], [ %32, %26 ], [ %.pre, %11 ]
  %38 = getelementptr inbounds i8, ptr %0, i64 32
  %39 = load ptr, ptr %38, align 8
  %40 = sext i32 %37 to i64
  %41 = getelementptr inbounds %"struct.pkpy::Dict::Item", ptr %39, i64 %40, i32 1
  store ptr %2, ptr %41, align 8
  ret void
}